; Function Attrs: nounwind uwtable
define dso_local noundef ptr @ExecStoreMinimalTuple(ptr noundef %0, ptr noundef returned captures(ret: address, provenance) %1, i1 noundef zeroext %2) local_unnamed_addr #1 {
  %4 = getelementptr inbounds nuw i8, ptr %1, i64 8
  %5 = load ptr, ptr %4, align 8
  %.not = icmp eq ptr %5, @TTSOpsMinimalTuple
  br i1 %.not, label %9, label %6, !prof !4

6:                                                ; preds = %3
  %7 = tail call zeroext i1 @errstart_cold(i32 noundef 21, ptr noundef null) #15
  tail call void @llvm.assume(i1 %7)
  %8 = tail call i32 (ptr, ...) @errmsg_internal(ptr noundef nonnull @.str.3) #14
  tail call void @errfinish(ptr noundef nonnull @.str.1, i32 noundef 1645, ptr noundef nonnull @__func__.ExecStoreMinimalTuple) #14
  unreachable

9:                                                ; preds = %3
  %10 = getelementptr inbounds nuw i8, ptr %1, i64 4
  %11 = load i16, ptr %10, align 4
  %12 = and i16 %11, 4
  %.not.i.i = icmp eq i16 %12, 0
  br i1 %.not.i.i, label %tts_minimal_clear.exit.i, label %13

13:                                               ; preds = %9
  %14 = getelementptr inbounds nuw i8, ptr %1, i64 72
  %15 = load ptr, ptr %14, align 8
  tail call void @heap_free_minimal_tuple(ptr noundef %15) #14
  %16 = load i16, ptr %10, align 4
  %17 = and i16 %16, -5
  br label %tts_minimal_clear.exit.i

tts_minimal_clear.exit.i:                         ; preds = %13, %9
  %18 = phi i16 [ %17, %13 ], [ %11, %9 ]
  %19 = getelementptr inbounds nuw i8, ptr %1, i64 6
  %20 = getelementptr inbounds nuw i8, ptr %1, i64 48
  store i16 -1, ptr %20, align 2
  %21 = getelementptr inbounds nuw i8, ptr %1, i64 50
  store i16 -1, ptr %21, align 2
  %22 = getelementptr inbounds nuw i8, ptr %1, i64 52
  store i16 0, ptr %22, align 2
  %23 = getelementptr inbounds nuw i8, ptr %1, i64 104
  %24 = getelementptr inbounds nuw i8, ptr %1, i64 72
  %25 = and i16 %18, -3
  store i16 %25, ptr %10, align 4
  store i16 0, ptr %19, align 2
  store i32 0, ptr %23, align 8
  store ptr %0, ptr %24, align 8
  %26 = load i32, ptr %0, align 4
  %27 = add i32 %26, 8
  %28 = getelementptr inbounds nuw i8, ptr %1, i64 80
  store i32 %27, ptr %28, align 8
  %29 = getelementptr inbounds i8, ptr %0, i64 -8
  %30 = getelementptr inbounds nuw i8, ptr %1, i64 96
  store ptr %29, ptr %30, align 8
  br i1 %2, label %31, label %tts_minimal_store_tuple.exit

31:                                               ; preds = %tts_minimal_clear.exit.i
  %32 = or i16 %25, 4
  store i16 %32, ptr %10, align 4
  br label %tts_minimal_store_tuple.exit

tts_minimal_store_tuple.exit:                     ; preds = %tts_minimal_clear.exit.i, %31
  ret ptr %1
}